; Function Attrs: nounwind uwtable
define hidden void @SDL_OnWindowHidden(ptr noundef %0) local_unnamed_addr #0 {
  %2 = getelementptr inbounds nuw i8, ptr %0, i64 72
  %3 = load i64, ptr %2, align 8
  %4 = and i64 %3, 129
  %5 = getelementptr inbounds nuw i8, ptr %0, i64 80
  %6 = load i64, ptr %5, align 8
  %7 = or i64 %6, %4
  store i64 %7, ptr %5, align 8
  %8 = tail call zeroext i1 @SDL_UpdateFullscreenMode(ptr noundef %0, i32 noundef 0, i1 noundef zeroext false)
  ret void
}